; Function Attrs: nounwind uwtable
define dso_local ptr @tuplehash_lookup_hash(ptr noundef readonly captures(none) %0, ptr readnone captures(none) %1, i32 noundef %2) local_unnamed_addr #0 {
  %4 = alloca i8, align 1
  %5 = getelementptr i8, ptr %0, i64 12
  %.val.i = load i32, ptr %5, align 4
  %6 = and i32 %.val.i, %2
  %7 = getelementptr inbounds nuw i8, ptr %0, i64 24
  %8 = load ptr, ptr %7, align 8
  %9 = zext i32 %6 to i64
  %10 = getelementptr inbounds nuw %struct.TupleHashEntryData, ptr %8, i64 %9
  %11 = getelementptr inbounds nuw i8, ptr %10, i64 16
  %12 = load i32, ptr %11, align 8
  %13 = icmp eq i32 %12, 0
  br i1 %13, label %tuplehash_lookup_hash_internal.exit, label %.lr.ph.i

.lr.ph.i:                                         ; preds = %3
  %14 = getelementptr i8, ptr %0, i64 40
  br label %15

15:                                               ; preds = %44, %.lr.ph.i
  %16 = phi ptr [ %8, %.lr.ph.i ], [ %45, %44 ]
  %.val1912.i = phi i32 [ %.val.i, %.lr.ph.i ], [ %.val19.i, %44 ]
  %17 = phi ptr [ %10, %.lr.ph.i ], [ %49, %44 ]
  %.0178.i = phi i32 [ %6, %.lr.ph.i ], [ %47, %44 ]
  %18 = getelementptr inbounds nuw i8, ptr %17, i64 20
  %19 = load i32, ptr %18, align 4
  %20 = icmp eq i32 %2, %19
  br i1 %20, label %21, label %44

21:                                               ; preds = %15
  %22 = load ptr, ptr %17, align 8
  %.val20.i = load ptr, ptr %14, align 8
  %23 = getelementptr inbounds nuw i8, ptr %.val20.i, i64 96
  %24 = load ptr, ptr %23, align 8
  %25 = getelementptr inbounds nuw i8, ptr %.val20.i, i64 64
  %26 = load ptr, ptr %25, align 8
  %27 = call ptr @ExecStoreMinimalTuple(ptr noundef %22, ptr noundef %26, i1 noundef zeroext false) #15
  %28 = getelementptr inbounds nuw i8, ptr %.val20.i, i64 72
  %29 = load ptr, ptr %28, align 8
  %30 = getelementptr inbounds nuw i8, ptr %24, i64 16
  store ptr %29, ptr %30, align 8
  %31 = getelementptr inbounds nuw i8, ptr %24, i64 24
  store ptr %26, ptr %31, align 8
  %32 = getelementptr inbounds nuw i8, ptr %.val20.i, i64 88
  %33 = load ptr, ptr %32, align 8
  call void @llvm.lifetime.start.p0(i64 1, ptr nonnull %4) #15
  %34 = icmp eq ptr %33, null
  br i1 %34, label %TupleHashTableMatch.exit.thread.i, label %TupleHashTableMatch.exit.i

TupleHashTableMatch.exit.thread.i:                ; preds = %21
  call void @llvm.lifetime.end.p0(i64 1, ptr nonnull %4) #15
  %35 = getelementptr inbounds nuw i8, ptr %24, i64 40
  %36 = load ptr, ptr %35, align 8
  call void @MemoryContextReset(ptr noundef %36) #15
  br label %tuplehash_lookup_hash_internal.exit

TupleHashTableMatch.exit.i:                       ; preds = %21
  %37 = getelementptr inbounds nuw i8, ptr %24, i64 40
  %38 = load ptr, ptr %37, align 8
  %39 = load ptr, ptr @CurrentMemoryContext, align 8
  store ptr %38, ptr @CurrentMemoryContext, align 8
  %40 = getelementptr inbounds nuw i8, ptr %33, i64 32
  %41 = load ptr, ptr %40, align 8
  %42 = call i64 %41(ptr noundef nonnull %33, ptr noundef nonnull %24, ptr noundef nonnull %4) #15
  store ptr %39, ptr @CurrentMemoryContext, align 8
  %.not.i = icmp eq i64 %42, 0
  call void @llvm.lifetime.end.p0(i64 1, ptr nonnull %4) #15
  %43 = load ptr, ptr %37, align 8
  call void @MemoryContextReset(ptr noundef %43) #15
  br i1 %.not.i, label %TupleHashTableMatch.exit._crit_edge.i, label %tuplehash_lookup_hash_internal.exit

TupleHashTableMatch.exit._crit_edge.i:            ; preds = %TupleHashTableMatch.exit.i
  %.val19.pre.i = load i32, ptr %5, align 4
  %.pre.i = load ptr, ptr %7, align 8
  br label %44

44:                                               ; preds = %TupleHashTableMatch.exit._crit_edge.i, %15
  %45 = phi ptr [ %.pre.i, %TupleHashTableMatch.exit._crit_edge.i ], [ %16, %15 ]
  %.val19.i = phi i32 [ %.val19.pre.i, %TupleHashTableMatch.exit._crit_edge.i ], [ %.val1912.i, %15 ]
  %46 = add i32 %.0178.i, 1
  %47 = and i32 %.val19.i, %46
  %48 = zext i32 %47 to i64
  %49 = getelementptr inbounds nuw %struct.TupleHashEntryData, ptr %45, i64 %48
  %50 = getelementptr inbounds nuw i8, ptr %49, i64 16
  %51 = load i32, ptr %50, align 8
  %52 = icmp eq i32 %51, 0
  br i1 %52, label %tuplehash_lookup_hash_internal.exit, label %15

tuplehash_lookup_hash_internal.exit:              ; preds = %TupleHashTableMatch.exit.i, %44, %3, %TupleHashTableMatch.exit.thread.i
  %.1.ph.i = phi ptr [ %17, %TupleHashTableMatch.exit.thread.i ], [ null, %3 ], [ null, %44 ], [ %17, %TupleHashTableMatch.exit.i ]
  ret ptr %.1.ph.i
}